target datalayout = "e-m:e-p270:32:32-p271:32:32-p272:64:64-i64:64-i128:128-f80:128-n8:16:32:64-S128"
target triple = "x86_64-pc-linux-gnu"

%struct._zend_executor_globals = type { %struct._zval_struct, %struct._zval_struct, [32 x ptr], ptr, ptr, %struct._zend_array, %struct._zend_array, ptr, i32, i32, ptr, ptr, ptr, ptr, ptr, ptr, i64, ptr, ptr, i32, i32, i64, i32, i32, i32, i8, i8, %struct.zend_atomic_bool_s, %struct.zend_atomic_bool_s, ptr, i64, ptr, ptr, %struct._zend_array, %struct._zend_array, i32, i8, %struct._zval_struct, %struct._zval_struct, %struct._zend_stack, %struct._zend_stack, %struct._zend_stack, ptr, i32, i32, i64, ptr, ptr, ptr, %struct._zend_objects_store, ptr, ptr, ptr, [3 x %struct._zend_op], ptr, i8, i8, i64, i32, i32, ptr, [16 x %struct._HashTableIterator], ptr, %union._zend_function, %struct._zend_op, %struct._zend_array, i64, %struct.zend_get_gc_buffer, ptr, ptr, ptr, i64, i8, i32, ptr, ptr, i64, %struct._zend_call_stack, i64, i64, [6 x ptr] }
%struct.zend_atomic_bool_s = type { i8 }
%struct._zval_struct = type { %union._zend_value, %union.anon, %union.anon.2 }
%union._zend_value = type { i64 }
%union.anon = type { i32 }
%union.anon.2 = type { i32 }
%struct._zend_stack = type { i32, i32, i32, ptr }
%struct._zend_objects_store = type { ptr, i32, i32, i32 }
%struct._HashTableIterator = type { ptr, i32, i32 }
%union._zend_function = type { %struct._zend_op_array }
%struct._zend_op_array = type { i8, [3 x i8], i32, ptr, ptr, ptr, i32, i32, ptr, ptr, ptr, ptr, i32, i32, i32, i32, ptr, ptr, ptr, ptr, ptr, i32, i32, ptr, ptr, ptr, i32, i32, i32, i32, ptr, ptr, [6 x ptr] }
%struct._zend_op = type { ptr, %union._znode_op, %union._znode_op, %union._znode_op, i32, i32, i8, i8, i8, i8 }
%union._znode_op = type { i32 }
%struct._zend_array = type { %struct._zend_refcounted_h, %union.anon.4, i32, %union.anon.6, i32, i32, i32, i32, i64, ptr }
%struct._zend_refcounted_h = type { i32, %union.anon.3 }
%union.anon.3 = type { i32 }
%union.anon.4 = type { i32 }
%union.anon.6 = type { ptr }
%struct.zend_get_gc_buffer = type { ptr, ptr, ptr }
%struct._zend_call_stack = type { ptr, i64 }
%struct._zend_execute_data = type { ptr, ptr, ptr, ptr, %struct._zval_struct, ptr, ptr, ptr, ptr }
%struct._xmlNode = type { ptr, i32, ptr, ptr, ptr, ptr, ptr, ptr, ptr, ptr, ptr, ptr, ptr, ptr, i16, i16 }
%struct._xmlNs = type { ptr, i32, ptr, ptr, ptr, ptr }
%struct._zend_string = type { %struct._zend_refcounted_h, i64, i64, [1 x i8] }
%struct._dom_object = type { ptr, ptr, ptr, %struct._zend_object }
%struct._zend_object = type { %struct._zend_refcounted_h, i32, ptr, ptr, ptr, [1 x %struct._zval_struct] }
%struct._zend_class_entry = type { i8, ptr, %union.anon.8, i32, i32, i32, i32, ptr, ptr, ptr, %struct._zend_array, %struct._zend_array, %struct._zend_array, ptr, ptr, ptr, ptr, ptr, ptr, ptr, ptr, ptr, ptr, ptr, ptr, ptr, ptr, ptr, ptr, ptr, ptr, ptr, %union.anon.9, ptr, ptr, ptr, ptr, i32, i32, %union.anon.10, ptr, ptr, ptr, ptr, i32, ptr, ptr, %union.anon.11 }
%union.anon.8 = type { ptr }
%union.anon.9 = type { ptr }
%union.anon.10 = type { ptr }
%union.anon.11 = type { %struct.anon.12 }
%struct.anon.12 = type { ptr, i32, i32 }
%struct._php_libxml_node_ptr = type { ptr, i32, ptr }
%struct._xmlDoc = type { ptr, i32, ptr, ptr, ptr, ptr, ptr, ptr, ptr, i32, i32, ptr, ptr, ptr, ptr, ptr, ptr, ptr, ptr, i32, ptr, ptr, i32, i32 }

@executor_globals = external global %struct._zend_executor_globals, align 8
@.str.5 = private unnamed_addr constant [18 x i8] c"Couldn't fetch %s\00", align 1
@.str.6 = private unnamed_addr constant [6 x i8] c"xmlns\00", align 1
@.str.14 = private unnamed_addr constant [1 x i8] zeroinitializer, align 1
@.str.22 = private unnamed_addr constant [5 x i8] c"s|b!\00", align 1
@.str.23 = private unnamed_addr constant [29 x i8] c"http://www.w3.org/1999/xhtml\00", align 1
@.str.24 = private unnamed_addr constant [7 x i8] c"xmlns:\00", align 1

; Function Attrs: nounwind uwtable
define internal ptr @dom_create_attribute(ptr noundef %0, ptr noundef %1, ptr noundef %2) #0 {
  %4 = alloca ptr, align 8
  %5 = alloca ptr, align 8
  %6 = alloca ptr, align 8
  %7 = alloca ptr, align 8
  store ptr %0, ptr %5, align 8
  store ptr %1, ptr %6, align 8
  store ptr %2, ptr %7, align 8
  %8 = load ptr, ptr %6, align 8
  %9 = call i32 @xmlStrEqual(ptr noundef %8, ptr noundef @.str.6)
  %10 = icmp ne i32 %9, 0
  br i1 %10, label %11, label %15

11:                                               ; preds = %3
  %12 = load ptr, ptr %5, align 8
  %13 = load ptr, ptr %7, align 8
  %14 = call ptr @xmlNewNs(ptr noundef %12, ptr noundef %13, ptr noundef null)
  store ptr %14, ptr %4, align 8
  br label %20

15:                                               ; preds = %3
  %16 = load ptr, ptr %5, align 8
  %17 = load ptr, ptr %6, align 8
  %18 = load ptr, ptr %7, align 8
  %19 = call ptr @xmlSetProp(ptr noundef %16, ptr noundef %17, ptr noundef %18)
  store ptr %19, ptr %4, align 8
  br label %20

20:                                               ; preds = %15, %11
  %21 = load ptr, ptr %4, align 8
  ret ptr %21
}

; Function Attrs: nounwind uwtable
define internal ptr @php_dom_obj_from_obj(ptr noundef %0) #0 {
  %2 = alloca ptr, align 8
  store ptr %0, ptr %2, align 8
  %3 = load ptr, ptr %2, align 8
  %4 = getelementptr inbounds i8, ptr %3, i64 -24
  ret ptr %4
}

; Function Attrs: nounwind uwtable
define hidden void @zim_DOMElement_toggleAttribute(ptr noundef %0, ptr noundef %1) #0 {
  %3 = alloca ptr, align 8
  %4 = alloca ptr, align 8
  %5 = alloca ptr, align 8
  %6 = alloca ptr, align 8
  %7 = alloca i64, align 8
  %8 = alloca i8, align 1
  %9 = alloca i8, align 1
  %10 = alloca ptr, align 8
  %11 = alloca ptr, align 8
  %12 = alloca ptr, align 8
  %13 = alloca i8, align 1
  %14 = alloca ptr, align 8
  %15 = alloca i32, align 4
  %16 = alloca ptr, align 8
  store ptr %0, ptr %3, align 8
  store ptr %1, ptr %4, align 8
  store ptr null, ptr %6, align 8
  store i8 1, ptr %9, align 1
  %17 = load ptr, ptr %3, align 8
  %18 = getelementptr inbounds %struct._zend_execute_data, ptr %17, i32 0, i32 4
  %19 = getelementptr inbounds %struct._zval_struct, ptr %18, i32 0, i32 2
  %20 = load i32, ptr %19, align 4
  %21 = call i32 (i32, ptr, ...) @zend_parse_parameters(i32 noundef %20, ptr noundef @.str.22, ptr noundef %5, ptr noundef %7, ptr noundef %8, ptr noundef %9)
  %22 = icmp eq i32 %21, -1
  br i1 %22, label %23, label %28

23:                                               ; preds = %2
  br label %24

24:                                               ; preds = %23
  %25 = load ptr, ptr getelementptr inbounds (%struct._zend_executor_globals, ptr @executor_globals, i32 0, i32 50), align 8
  %26 = icmp ne ptr %25, null
  call void @llvm.assume(i1 %26)
  br label %168

27:                                               ; No predecessors!
  br label %28

28:                                               ; preds = %27, %2
  %29 = load ptr, ptr %3, align 8
  %30 = getelementptr inbounds %struct._zend_execute_data, ptr %29, i32 0, i32 4
  store ptr %30, ptr %11, align 8
  %31 = load ptr, ptr %11, align 8
  %32 = getelementptr inbounds %struct._zval_struct, ptr %31, i32 0, i32 0
  %33 = load ptr, ptr %32, align 8
  %34 = call ptr @php_dom_obj_from_obj(ptr noundef %33)
  store ptr %34, ptr %12, align 8
  %35 = load ptr, ptr %12, align 8
  %36 = getelementptr inbounds %struct._dom_object, ptr %35, i32 0, i32 0
  %37 = load ptr, ptr %36, align 8
  %38 = icmp eq ptr %37, null
  %39 = xor i1 %38, true
  %40 = xor i1 %39, true
  %41 = zext i1 %40 to i32
  %42 = sext i32 %41 to i64
  %43 = icmp ne i64 %42, 0
  br i1 %43, label %44, label %57

44:                                               ; preds = %28
  %45 = load ptr, ptr %12, align 8
  %46 = getelementptr inbounds %struct._dom_object, ptr %45, i32 0, i32 3
  %47 = getelementptr inbounds %struct._zend_object, ptr %46, i32 0, i32 2
  %48 = load ptr, ptr %47, align 8
  %49 = getelementptr inbounds %struct._zend_class_entry, ptr %48, i32 0, i32 1
  %50 = load ptr, ptr %49, align 8
  %51 = getelementptr inbounds %struct._zend_string, ptr %50, i32 0, i32 3
  %52 = getelementptr inbounds [1 x i8], ptr %51, i64 0, i64 0
  call void (ptr, ptr, ...) @zend_throw_error(ptr noundef null, ptr noundef @.str.5, ptr noundef %52)
  br label %53

53:                                               ; preds = %44
  %54 = load ptr, ptr getelementptr inbounds (%struct._zend_executor_globals, ptr @executor_globals, i32 0, i32 50), align 8
  %55 = icmp ne ptr %54, null
  call void @llvm.assume(i1 %55)
  br label %168

56:                                               ; No predecessors!
  br label %57

57:                                               ; preds = %56, %28
  %58 = load ptr, ptr %12, align 8
  %59 = getelementptr inbounds %struct._dom_object, ptr %58, i32 0, i32 0
  %60 = load ptr, ptr %59, align 8
  %61 = getelementptr inbounds %struct._php_libxml_node_ptr, ptr %60, i32 0, i32 0
  %62 = load ptr, ptr %61, align 8
  store ptr %62, ptr %10, align 8
  %63 = load ptr, ptr %5, align 8
  %64 = call i32 @xmlValidateName(ptr noundef %63, i32 noundef 0)
  %65 = icmp ne i32 %64, 0
  br i1 %65, label %66, label %71

66:                                               ; preds = %57
  call void @php_dom_throw_error(i32 noundef 5, i32 noundef 1)
  br label %67

67:                                               ; preds = %66
  %68 = load ptr, ptr getelementptr inbounds (%struct._zend_executor_globals, ptr @executor_globals, i32 0, i32 50), align 8
  %69 = icmp ne ptr %68, null
  call void @llvm.assume(i1 %69)
  br label %168

70:                                               ; No predecessors!
  br label %71

71:                                               ; preds = %70, %57
  %72 = load ptr, ptr %10, align 8
  %73 = getelementptr inbounds %struct._xmlNode, ptr %72, i32 0, i32 8
  %74 = load ptr, ptr %73, align 8
  %75 = icmp ne ptr %74, null
  br i1 %75, label %76, label %105

76:                                               ; preds = %71
  %77 = load ptr, ptr %10, align 8
  %78 = getelementptr inbounds %struct._xmlNode, ptr %77, i32 0, i32 8
  %79 = load ptr, ptr %78, align 8
  %80 = getelementptr inbounds %struct._xmlDoc, ptr %79, i32 0, i32 1
  %81 = load i32, ptr %80, align 8
  %82 = icmp eq i32 %81, 13
  br i1 %82, label %83, label %105

83:                                               ; preds = %76
  %84 = load ptr, ptr %10, align 8
  %85 = getelementptr inbounds %struct._xmlNode, ptr %84, i32 0, i32 9
  %86 = load ptr, ptr %85, align 8
  %87 = icmp eq ptr %86, null
  br i1 %87, label %96, label %88

88:                                               ; preds = %83
  %89 = load ptr, ptr %10, align 8
  %90 = getelementptr inbounds %struct._xmlNode, ptr %89, i32 0, i32 9
  %91 = load ptr, ptr %90, align 8
  %92 = getelementptr inbounds %struct._xmlNs, ptr %91, i32 0, i32 2
  %93 = load ptr, ptr %92, align 8
  %94 = call i32 @xmlStrEqual(ptr noundef %93, ptr noundef @.str.23)
  %95 = icmp ne i32 %94, 0
  br i1 %95, label %96, label %105

96:                                               ; preds = %88, %83
  %97 = load ptr, ptr %5, align 8
  %98 = load i64, ptr %7, align 8
  %99 = call ptr @zend_str_tolower_dup_ex(ptr noundef %97, i64 noundef %98)
  store ptr %99, ptr %6, align 8
  %100 = load ptr, ptr %6, align 8
  %101 = icmp ne ptr %100, null
  br i1 %101, label %102, label %104

102:                                              ; preds = %96
  %103 = load ptr, ptr %6, align 8
  store ptr %103, ptr %5, align 8
  br label %104

104:                                              ; preds = %102, %96
  br label %105

105:                                              ; preds = %104, %88, %76, %71
  %106 = load ptr, ptr %10, align 8
  %107 = load ptr, ptr %5, align 8
  %108 = call ptr @dom_get_dom1_attribute(ptr noundef %106, ptr noundef %107)
  store ptr %108, ptr %14, align 8
  %109 = load ptr, ptr %14, align 8
  %110 = icmp eq ptr %109, null
  br i1 %110, label %111, label %143

111:                                              ; preds = %105
  %112 = load i8, ptr %9, align 1
  %113 = trunc i8 %112 to i1
  br i1 %113, label %117, label %114

114:                                              ; preds = %111
  %115 = load i8, ptr %8, align 1
  %116 = trunc i8 %115 to i1
  br i1 %116, label %117, label %142

117:                                              ; preds = %114, %111
  %118 = load ptr, ptr %5, align 8
  %119 = call ptr @xmlSplitQName3(ptr noundef %118, ptr noundef %15)
  store ptr %119, ptr %16, align 8
  %120 = load ptr, ptr %16, align 8
  %121 = icmp eq ptr %120, null
  br i1 %121, label %129, label %122

122:                                              ; preds = %117
  %123 = load ptr, ptr %5, align 8
  %124 = load i32, ptr %15, align 4
  %125 = add nsw i32 %124, 1
  %126 = sext i32 %125 to i64
  %127 = call i32 @strncmp(ptr noundef %123, ptr noundef @.str.24, i64 noundef %126) #8
  %128 = icmp ne i32 %127, 0
  br i1 %128, label %129, label %133

129:                                              ; preds = %122, %117
  %130 = load ptr, ptr %10, align 8
  %131 = load ptr, ptr %5, align 8
  %132 = call ptr @dom_create_attribute(ptr noundef %130, ptr noundef %131, ptr noundef @.str.14)
  br label %141

133:                                              ; preds = %122
  %134 = load ptr, ptr %10, align 8
  %135 = load ptr, ptr %5, align 8
  %136 = load i32, ptr %15, align 4
  %137 = sext i32 %136 to i64
  %138 = getelementptr inbounds i8, ptr %135, i64 %137
  %139 = getelementptr inbounds i8, ptr %138, i64 1
  %140 = call ptr @xmlNewNs(ptr noundef %134, ptr noundef @.str.14, ptr noundef %139)
  br label %141

141:                                              ; preds = %133, %129
  store i8 1, ptr %13, align 1
  br label %154

142:                                              ; preds = %114
  store i8 0, ptr %13, align 1
  br label %154

143:                                              ; preds = %105
  %144 = load i8, ptr %9, align 1
  %145 = trunc i8 %144 to i1
  br i1 %145, label %149, label %146

146:                                              ; preds = %143
  %147 = load i8, ptr %8, align 1
  %148 = trunc i8 %147 to i1
  br i1 %148, label %153, label %149

149:                                              ; preds = %146, %143
  %150 = load ptr, ptr %10, align 8
  %151 = load ptr, ptr %14, align 8
  %152 = call zeroext i1 @dom_remove_attribute(ptr noundef %150, ptr noundef %151)
  store i8 0, ptr %13, align 1
  br label %154

153:                                              ; preds = %146
  store i8 1, ptr %13, align 1
  br label %154

154:                                              ; preds = %153, %149, %142, %141
  %155 = load ptr, ptr %6, align 8
  %156 = icmp ne ptr %155, null
  br i1 %156, label %157, label %159

157:                                              ; preds = %154
  %158 = load ptr, ptr %6, align 8
  call void @_efree(ptr noundef %158)
  br label %159

159:                                              ; preds = %157, %154
  br label %160

160:                                              ; preds = %159
  br label %161

161:                                              ; preds = %160
  %162 = load i8, ptr %13, align 1
  %163 = trunc i8 %162 to i1
  %164 = select i1 %163, i32 3, i32 2
  %165 = load ptr, ptr %4, align 8
  %166 = getelementptr inbounds %struct._zval_struct, ptr %165, i32 0, i32 1
  store i32 %164, ptr %166, align 8
  br label %167

167:                                              ; preds = %161
  br label %168

168:                                              ; preds = %167, %67, %53, %24
  ret void
}