; Function Attrs: nounwind uwtable
define hidden void @zim_DOMElement_toggleAttribute(ptr nocapture noundef readonly %0, ptr nocapture noundef writeonly %1) local_unnamed_addr #0 {
  %3 = alloca ptr, align 8
  %4 = alloca i64, align 8
  %5 = alloca i8, align 1
  %6 = alloca i8, align 1
  %7 = alloca i32, align 4
  store i8 1, ptr %6, align 1
  %8 = getelementptr inbounds i8, ptr %0, i64 44
  %9 = load i32, ptr %8, align 4
  %10 = call i32 (i32, ptr, ...) @zend_parse_parameters(i32 noundef %9, ptr noundef nonnull @.str.22, ptr noundef nonnull %3, ptr noundef nonnull %4, ptr noundef nonnull %5, ptr noundef nonnull %6) #8
  %11 = icmp eq i32 %10, -1
  br i1 %11, label %12, label %15

12:                                               ; preds = %2
  %13 = load ptr, ptr getelementptr inbounds (%struct._zend_executor_globals, ptr @executor_globals, i64 0, i32 50), align 8
  %14 = icmp ne ptr %13, null
  call void @llvm.assume(i1 %14)
  br label %94

15:                                               ; preds = %2
  %16 = getelementptr inbounds i8, ptr %0, i64 32
  %17 = load ptr, ptr %16, align 8
  %18 = getelementptr inbounds i8, ptr %17, i64 -24
  %19 = load ptr, ptr %18, align 8
  %20 = icmp eq ptr %19, null
  br i1 %20, label %21, label %29

21:                                               ; preds = %15
  %22 = getelementptr inbounds i8, ptr %17, i64 16
  %23 = load ptr, ptr %22, align 8
  %24 = getelementptr inbounds i8, ptr %23, i64 8
  %25 = load ptr, ptr %24, align 8
  %26 = getelementptr inbounds i8, ptr %25, i64 24
  call void (ptr, ptr, ...) @zend_throw_error(ptr noundef null, ptr noundef nonnull @.str.5, ptr noundef nonnull %26) #8
  %27 = load ptr, ptr getelementptr inbounds (%struct._zend_executor_globals, ptr @executor_globals, i64 0, i32 50), align 8
  %28 = icmp ne ptr %27, null
  call void @llvm.assume(i1 %28)
  br label %94

29:                                               ; preds = %15
  %30 = load ptr, ptr %19, align 8
  %31 = load ptr, ptr %3, align 8
  %32 = call i32 @xmlValidateName(ptr noundef %31, i32 noundef 0) #8
  %.not = icmp eq i32 %32, 0
  br i1 %.not, label %36, label %33

33:                                               ; preds = %29
  call void @php_dom_throw_error(i32 noundef 5, i32 noundef 1) #8
  %34 = load ptr, ptr getelementptr inbounds (%struct._zend_executor_globals, ptr @executor_globals, i64 0, i32 50), align 8
  %35 = icmp ne ptr %34, null
  call void @llvm.assume(i1 %35)
  br label %94

36:                                               ; preds = %29
  %37 = getelementptr inbounds i8, ptr %30, i64 64
  %38 = load ptr, ptr %37, align 8
  %.not28 = icmp eq ptr %38, null
  br i1 %.not28, label %56, label %39

39:                                               ; preds = %36
  %40 = getelementptr inbounds i8, ptr %38, i64 8
  %41 = load i32, ptr %40, align 8
  %42 = icmp eq i32 %41, 13
  br i1 %42, label %43, label %56

43:                                               ; preds = %39
  %44 = getelementptr inbounds i8, ptr %30, i64 72
  %45 = load ptr, ptr %44, align 8
  %46 = icmp eq ptr %45, null
  br i1 %46, label %51, label %47

47:                                               ; preds = %43
  %48 = getelementptr inbounds i8, ptr %45, i64 16
  %49 = load ptr, ptr %48, align 8
  %50 = call i32 @xmlStrEqual(ptr noundef %49, ptr noundef nonnull @.str.23) #8
  %.not29 = icmp eq i32 %50, 0
  br i1 %.not29, label %56, label %51

51:                                               ; preds = %47, %43
  %52 = load ptr, ptr %3, align 8
  %53 = load i64, ptr %4, align 8
  %54 = call ptr @zend_str_tolower_dup_ex(ptr noundef %52, i64 noundef %53) #8
  %.not30 = icmp eq ptr %54, null
  br i1 %.not30, label %56, label %55

55:                                               ; preds = %51
  store ptr %54, ptr %3, align 8
  br label %56

56:                                               ; preds = %51, %55, %47, %39, %36
  %.0 = phi ptr [ %54, %55 ], [ null, %51 ], [ null, %47 ], [ null, %39 ], [ null, %36 ]
  %57 = load ptr, ptr %3, align 8
  %58 = call fastcc ptr @dom_get_dom1_attribute(ptr noundef nonnull %30, ptr noundef %57)
  %59 = icmp eq ptr %58, null
  %60 = load i8, ptr %6, align 1
  %61 = and i8 %60, 1
  %.not33 = icmp eq i8 %61, 0
  br i1 %59, label %62, label %86

62:                                               ; preds = %56
  br i1 %.not33, label %63, label %66

63:                                               ; preds = %62
  %64 = load i8, ptr %5, align 1
  %65 = and i8 %64, 1
  %.not34 = icmp eq i8 %65, 0
  br i1 %.not34, label %dom_create_attribute.exit, label %66

66:                                               ; preds = %63, %62
  %67 = load ptr, ptr %3, align 8
  %68 = call ptr @xmlSplitQName3(ptr noundef %67, ptr noundef nonnull %7) #8
  %69 = icmp eq ptr %68, null
  %.pre = load ptr, ptr %3, align 8
  br i1 %69, label %75, label %70

70:                                               ; preds = %66
  %71 = load i32, ptr %7, align 4
  %72 = add nsw i32 %71, 1
  %73 = sext i32 %72 to i64
  %74 = call i32 @strncmp(ptr noundef %.pre, ptr noundef nonnull @.str.24, i64 noundef %73) #9
  %.not35 = icmp eq i32 %74, 0
  br i1 %.not35, label %81, label %75

75:                                               ; preds = %70, %66
  %76 = call i32 @xmlStrEqual(ptr noundef %.pre, ptr noundef nonnull @.str.6) #8
  %.not.i = icmp eq i32 %76, 0
  br i1 %.not.i, label %79, label %77

77:                                               ; preds = %75
  %78 = call ptr @xmlNewNs(ptr noundef nonnull %30, ptr noundef nonnull @.str.14, ptr noundef null) #8
  br label %dom_create_attribute.exit

79:                                               ; preds = %75
  %80 = call ptr @xmlSetProp(ptr noundef nonnull %30, ptr noundef %.pre, ptr noundef nonnull @.str.14) #8
  br label %dom_create_attribute.exit

81:                                               ; preds = %70
  %82 = sext i32 %71 to i64
  %83 = getelementptr inbounds i8, ptr %.pre, i64 %82
  %84 = getelementptr inbounds i8, ptr %83, i64 1
  %85 = call ptr @xmlNewNs(ptr noundef nonnull %30, ptr noundef nonnull @.str.14, ptr noundef nonnull %84) #8
  br label %dom_create_attribute.exit

86:                                               ; preds = %56
  br i1 %.not33, label %87, label %90

87:                                               ; preds = %86
  %88 = load i8, ptr %5, align 1
  %89 = and i8 %88, 1
  %.not32 = icmp eq i8 %89, 0
  br i1 %.not32, label %90, label %dom_create_attribute.exit

90:                                               ; preds = %87, %86
  call fastcc void @dom_remove_attribute(ptr noundef nonnull %30, ptr noundef nonnull %58)
  br label %dom_create_attribute.exit

dom_create_attribute.exit:                        ; preds = %79, %77, %87, %63, %81, %90
  %.022 = phi i32 [ 2, %90 ], [ 3, %81 ], [ 2, %63 ], [ 3, %87 ], [ 3, %77 ], [ 3, %79 ]
  %.not36 = icmp eq ptr %.0, null
  br i1 %.not36, label %92, label %91

91:                                               ; preds = %dom_create_attribute.exit
  call void @_efree(ptr noundef nonnull %.0) #8
  br label %92

92:                                               ; preds = %91, %dom_create_attribute.exit
  %93 = getelementptr inbounds i8, ptr %1, i64 8
  store i32 %.022, ptr %93, align 8
  br label %94

94:                                               ; preds = %92, %33, %21, %12
  ret void
}